; Function Attrs: mustprogress uwtable
define hidden void @_ZN5array6solver15set_prop_upwardERNS0_8var_dataE(ptr noundef nonnull align 8 dereferenceable(536) %0, ptr noundef nonnull readonly align 8 captures(none) dereferenceable(32) %1) local_unnamed_addr #3 align 2 {
  %3 = getelementptr inbounds nuw i8, ptr %1, i64 8
  %4 = load ptr, ptr %3, align 8, !tbaa !135
  %5 = icmp eq ptr %4, null
  br i1 %5, label %._crit_edge, label %_ZN6vectorIPN3euf5enodeELb0EjE3endEv.exit

_ZN6vectorIPN3euf5enodeELb0EjE3endEv.exit:        ; preds = %2
  %6 = getelementptr inbounds i8, ptr %4, i64 -4
  %7 = load i32, ptr %6, align 4, !tbaa !140
  %8 = zext i32 %7 to i64
  %9 = getelementptr inbounds nuw ptr, ptr %4, i64 %8
  %.not10 = icmp eq i32 %7, 0
  br i1 %.not10, label %._crit_edge, label %.lr.ph

.lr.ph:                                           ; preds = %_ZN6vectorIPN3euf5enodeELb0EjE3endEv.exit
  %10 = getelementptr inbounds nuw i8, ptr %0, i64 112
  %11 = getelementptr inbounds nuw i8, ptr %0, i64 12
  br label %12

._crit_edge:                                      ; preds = %_ZN5array6solver21set_prop_upward_storeEPN3euf5enodeE.exit, %2, %_ZN6vectorIPN3euf5enodeELb0EjE3endEv.exit
  ret void

12:                                               ; preds = %.lr.ph, %_ZN5array6solver21set_prop_upward_storeEPN3euf5enodeE.exit
  %.011 = phi ptr [ %4, %.lr.ph ], [ %47, %_ZN5array6solver21set_prop_upward_storeEPN3euf5enodeE.exit ]
  %13 = load ptr, ptr %.011, align 8, !tbaa !174
  %14 = load ptr, ptr %13, align 8, !tbaa !187
  %15 = load i32, ptr %10, align 8, !tbaa !201
  %16 = getelementptr inbounds nuw i8, ptr %14, i64 4
  %17 = load i32, ptr %16, align 4
  %18 = and i32 %17, 65535
  %19 = icmp eq i32 %18, 0
  br i1 %19, label %20, label %_ZN5array6solver21set_prop_upward_storeEPN3euf5enodeE.exit

20:                                               ; preds = %12
  %21 = getelementptr inbounds nuw i8, ptr %14, i64 16
  %22 = load ptr, ptr %21, align 8, !tbaa !374
  %23 = getelementptr inbounds nuw i8, ptr %22, i64 24
  %24 = load ptr, ptr %23, align 8, !tbaa !198
  %.not.i.i.i.i.i = icmp eq ptr %24, null
  br i1 %.not.i.i.i.i.i, label %_ZN5array6solver21set_prop_upward_storeEPN3euf5enodeE.exit, label %_ZNK17array_recognizers8is_storeEP4expr.exit.i

_ZNK17array_recognizers8is_storeEP4expr.exit.i:   ; preds = %20
  %25 = load i32, ptr %24, align 8, !tbaa !202
  %26 = icmp eq i32 %25, %15
  %27 = getelementptr inbounds nuw i8, ptr %24, i64 4
  %28 = load i32, ptr %27, align 4
  %29 = icmp eq i32 %28, 0
  %30 = select i1 %26, i1 %29, i1 false
  br i1 %30, label %31, label %_ZN5array6solver21set_prop_upward_storeEPN3euf5enodeE.exit

31:                                               ; preds = %_ZNK17array_recognizers8is_storeEP4expr.exit.i
  %32 = getelementptr inbounds nuw i8, ptr %13, i64 176
  %33 = load ptr, ptr %32, align 8, !tbaa !174
  %34 = load i32, ptr %11, align 4, !tbaa !172
  %35 = getelementptr inbounds nuw i8, ptr %33, i64 88
  %36 = load i32, ptr %35, align 8
  %37 = icmp ugt i32 %36, -257
  br i1 %37, label %_ZNK3euf5enode10get_th_varEi.exit.i, label %.preheader.i.i.i

.preheader.i.i.i:                                 ; preds = %31, %44
  %.0.i.i.i = phi ptr [ %46, %44 ], [ %35, %31 ]
  %38 = load i32, ptr %.0.i.i.i, align 8
  %39 = shl i32 %38, 24
  %40 = ashr exact i32 %39, 24
  %41 = icmp eq i32 %34, %40
  br i1 %41, label %42, label %44

42:                                               ; preds = %.preheader.i.i.i
  %43 = ashr i32 %38, 8
  br label %_ZNK3euf5enode10get_th_varEi.exit.i

44:                                               ; preds = %.preheader.i.i.i
  %45 = getelementptr inbounds nuw i8, ptr %.0.i.i.i, i64 8
  %46 = load ptr, ptr %45, align 8, !tbaa !377
  %.not.i.i.i = icmp eq ptr %46, null
  br i1 %.not.i.i.i, label %_ZNK3euf5enode10get_th_varEi.exit.i, label %.preheader.i.i.i, !llvm.loop !378

_ZNK3euf5enode10get_th_varEi.exit.i:              ; preds = %44, %42, %31
  %.06.i.i.i = phi i32 [ -1, %31 ], [ %43, %42 ], [ -1, %44 ]
  tail call void @_ZN5array6solver15set_prop_upwardEi(ptr noundef nonnull align 8 dereferenceable(536) %0, i32 noundef %.06.i.i.i)
  br label %_ZN5array6solver21set_prop_upward_storeEPN3euf5enodeE.exit

_ZN5array6solver21set_prop_upward_storeEPN3euf5enodeE.exit: ; preds = %12, %20, %_ZNK17array_recognizers8is_storeEP4expr.exit.i, %_ZNK3euf5enode10get_th_varEi.exit.i
  %47 = getelementptr inbounds nuw i8, ptr %.011, i64 8
  %.not = icmp eq ptr %47, %9
  br i1 %.not, label %._crit_edge, label %12
}